; Function Attrs: mustprogress uwtable
define void @_ZN7rocksdb29PartitionedFilterBlockBuilder3AddERKNS_5SliceE(ptr noundef nonnull align 8 dereferenceable(577) %0, ptr noundef nonnull align 8 dereferenceable(16) %1) unnamed_addr #3 align 2 personality ptr @__gxx_personality_v0 {
  %3 = alloca %"class.rocksdb::Slice", align 8
  call void @llvm.lifetime.start.p0(i64 16, ptr nonnull %3) #22
  %4 = getelementptr inbounds nuw i8, ptr %0, i64 176
  %5 = load ptr, ptr %4, align 8, !tbaa !75
  store ptr %5, ptr %3, align 8, !tbaa !146
  %6 = getelementptr inbounds nuw i8, ptr %3, i64 8
  %7 = getelementptr inbounds nuw i8, ptr %0, i64 184
  %8 = load i64, ptr %7, align 8, !tbaa !68
  store i64 %8, ptr %6, align 8, !tbaa !148
  call void @_ZN7rocksdb29PartitionedFilterBlockBuilder7AddImplERKNS_5SliceES3_(ptr noundef nonnull align 8 dereferenceable(577) %0, ptr noundef nonnull align 8 dereferenceable(16) %1, ptr noundef nonnull align 8 dereferenceable(16) %3)
  call void @llvm.lifetime.end.p0(i64 16, ptr nonnull %3) #22
  %9 = load ptr, ptr %1, align 8, !tbaa !146
  %10 = getelementptr inbounds nuw i8, ptr %1, i64 8
  %11 = load i64, ptr %10, align 8, !tbaa !148
  %12 = load i64, ptr %7, align 8, !tbaa !68
  %13 = call noundef nonnull align 8 dereferenceable(32) ptr @_ZNSt7__cxx1112basic_stringIcSt11char_traitsIcESaIcEE10_M_replaceEmmPKcm(ptr noundef nonnull align 8 dereferenceable(32) %4, i64 noundef 0, i64 noundef %12, ptr noundef %9, i64 noundef %11)
  ret void
}